Certificate:
    Data:
        Version: 3 (0x2)
        Serial Number:
            1f:0a:20:fb:dd:63:99:05:3a:49:2b:aa:dd:42:30:90:d7:b1:c9:c8
        Signature Algorithm: sha256WithRSAEncryption
        Issuer: CN = postgres
        Validity
            Not Before: Sep  6 19:05:43 2025 GMT
            Not After : Sep  6 19:05:43 2026 GMT
        Subject: CN = postgres
        Subject Public Key Info:
            Public Key Algorithm: rsaEncryption
                Public-Key: (2048 bit)
                Modulus:
                    00:ba:b9:04:c2:2f:99:02:09:c2:d9:e4:9c:de:8b:
                    ea:7a:ba:08:e2:7f:ed:d7:cb:48:00:72:14:0c:f6:
                    9b:b0:c4:40:32:6f:00:01:07:c6:14:bb:1c:22:93:
                    df:9a:0a:69:ed:74:40:31:57:21:51:47:7d:21:5b:
                    69:d3:c9:c2:02:24:7a:7a:23:4a:9a:5d:54:65:e5:
                    1e:09:88:ac:96:e0:cf:59:9e:48:9c:9c:80:0b:cd:
                    4c:ba:7f:6b:2c:72:5c:a1:30:38:5c:8e:55:a2:b2:
                    f1:40:dd:62:cc:47:bd:60:de:7b:ad:73:74:25:a2:
                    fe:5e:b9:a8:74:8d:98:42:ba:80:0b:ea:a1:da:7e:
                    eb:5d:9f:31:22:03:16:d6:b1:45:65:10:c4:de:d5:
                    53:8e:92:d9:3b:0b:e5:b9:93:ea:d4:29:08:7b:7e:
                    19:70:32:0d:6a:74:8f:f3:73:53:9d:45:44:da:7b:
                    49:11:85:2e:02:53:8e:be:75:e7:ee:38:86:17:56:
                    c4:ab:a2:43:ce:7b:d7:56:04:f0:f6:31:01:b3:32:
                    fb:3b:9e:88:61:36:b1:76:4a:88:60:a1:df:92:c9:
                    af:b0:7d:55:fe:31:85:c8:c5:f0:d3:8e:b8:f9:3c:
                    e1:e9:ec:40:f3:58:25:55:b3:5b:9a:43:35:4f:8b:
                    fc:4f
                Exponent: 65537 (0x10001)
        X509v3 extensions:
            X509v3 Subject Key Identifier: 
                FD:27:37:B6:AA:3B:BE:B5:82:02:ED:2E:2E:07:B3:D2:DC:2E:B8:6E
            X509v3 Authority Key Identifier: 
                FD:27:37:B6:AA:3B:BE:B5:82:02:ED:2E:2E:07:B3:D2:DC:2E:B8:6E
            X509v3 Basic Constraints: critical
                CA:TRUE
    Signature Algorithm: sha256WithRSAEncryption
    Signature Value:
        47:a5:b1:13:54:92:18:49:32:8b:7d:29:71:c5:53:27:38:7c:
        16:3b:05:00:37:4a:08:d4:68:af:7a:81:3b:76:6a:d5:a6:7b:
        70:c3:4e:52:0e:4c:2b:79:8f:0e:6e:1e:21:b1:31:f3:63:09:
        92:9b:77:d0:72:ff:02:f1:f3:b2:24:ec:a9:74:cc:f8:0e:e5:
        e2:84:5f:62:31:41:32:e4:25:a1:57:5a:82:bf:33:19:e0:c9:
        be:61:f3:fb:c8:70:96:21:46:e9:7d:51:af:36:0e:aa:12:c2:
        29:af:1c:40:69:7c:2e:8c:e5:6c:a2:89:10:6d:6e:9b:3f:5f:
        b6:50:50:1c:95:8f:25:37:1b:8a:09:bc:b8:13:40:5d:a0:ed:
        55:d9:54:14:a4:92:3f:9a:8e:c0:6c:8f:6b:c2:df:76:02:c5:
        c1:68:72:25:ed:95:40:ba:29:03:12:13:e2:8a:84:ba:5f:79:
        f8:36:3a:f5:93:18:81:85:91:25:1d:a6:53:6f:5b:6a:f2:65:
        f9:7c:ab:31:3d:12:20:fc:b2:85:f1:d4:69:13:67:9a:82:63:
        09:fe:05:fe:9e:07:ca:40:db:e8:63:d5:9d:ec:c3:f4:fd:0a:
        e7:6f:d4:12:18:9a:f3:5d:c5:33:62:78:3a:36:34:0f:75:cd:
        3c:48:36:1d
-----BEGIN CERTIFICATE-----
MIIDBzCCAe+gAwIBAgIUHwog+91jmQU6SSuq3UIwkNexycgwDQYJKoZIhvcNAQEL
BQAwEzERMA8GA1UEAwwIcG9zdGdyZXMwHhcNMjUwOTA2MTkwNTQzWhcNMjYwOTA2
MTkwNTQzWjATMREwDwYDVQQDDAhwb3N0Z3JlczCCASIwDQYJKoZIhvcNAQEBBQAD
ggEPADCCAQoCggEBALq5BMIvmQIJwtnknN6L6nq6COJ/7dfLSAByFAz2m7DEQDJv
AAEHxhS7HCKT35oKae10QDFXIVFHfSFbadPJwgIkenojSppdVGXlHgmIrJbgz1me
SJycgAvNTLp/ayxyXKEwOFyOVaKy8UDdYsxHvWDee61zdCWi/l65qHSNmEK6gAvq
odp+612fMSIDFtaxRWUQxN7VU46S2TsL5bmT6tQpCHt+GXAyDWp0j/NzU51FRNp7
SRGFLgJTjr515+44hhdWxKuiQ85711YE8PYxAbMy+zueiGE2sXZKiGCh35LJr7B9
Vf4xhcjF8NOOuPk84ensQPNYJVWzW5pDNU+L/E8CAwEAAaNTMFEwHQYDVR0OBBYE
FP0nN7aqO761ggLtLi4Hs9LcLrhuMB8GA1UdIwQYMBaAFP0nN7aqO761ggLtLi4H
s9LcLrhuMA8GA1UdEwEB/wQFMAMBAf8wDQYJKoZIhvcNAQELBQADggEBAEelsRNU
khhJMot9KXHFUyc4fBY7BQA3SgjUaK96gTt2atWme3DDTlIOTCt5jw5uHiGxMfNj
CZKbd9By/wLx87Ik7Kl0zPgO5eKEX2IxQTLkJaFXWoK/Mxngyb5h8/vIcJYhRul9
Ua82DqoSwimvHEBpfC6M5WyiiRBtbps/X7ZQUByVjyU3G4oJvLgTQF2g7VXZVBSk
kj+ajsBsj2vC33YCxcFociXtlUC6KQMSE+KKhLpfefg2OvWTGIGFkSUdplNvW2ry
Zfl8qzE9EiD8soXx1GkTZ5qCYwn+Bf6eB8pA2+hj1Z3sw/T9Cudv1BIYmvNdxTNi
eDo2NA91zTxINh0=
-----END CERTIFICATE-----
